target datalayout = "e-m:e-p270:32:32-p271:32:32-p272:64:64-i64:64-i128:128-f80:128-n8:16:32:64-S128"
target triple = "x86_64-unknown-linux-gnu"

%struct.tsd_s = type { i8, i8, i64, i64, i64, i64, i64, i64, i64, i64, i64, i64, i64, i64, ptr, i64, i64, i64, ptr, ptr, %struct.ticker_geom_s, i8, %struct.tsd_binshards_s, %struct.tsd_link_t, i8, %struct.peak_s, %struct.activity_callback_thunk_s, %struct.tcache_slow_s, %struct.rtree_ctx_s, %struct.atomic_u8_t, i64, i64, i64, i64, %struct.tcache_s, %struct.witness_tsd_s }
%struct.ticker_geom_s = type { i32, i32 }
%struct.tsd_binshards_s = type { [39 x i8] }
%struct.tsd_link_t = type { ptr, ptr }
%struct.peak_s = type { i64, i64 }
%struct.activity_callback_thunk_s = type { ptr, ptr }
%struct.tcache_slow_s = type { %struct.anon.3, %struct.cache_bin_array_descriptor_s, ptr, i32, [39 x i8], [39 x i8], [39 x i8], ptr, ptr }
%struct.anon.3 = type { ptr, ptr }
%struct.cache_bin_array_descriptor_s = type { %struct.anon.4, ptr }
%struct.anon.4 = type { ptr, ptr }
%struct.rtree_ctx_s = type { [16 x %struct.rtree_ctx_cache_elm_s], [8 x %struct.rtree_ctx_cache_elm_s] }
%struct.rtree_ctx_cache_elm_s = type { i64, ptr }
%struct.atomic_u8_t = type { i8 }
%struct.tcache_s = type { ptr, [76 x %struct.cache_bin_s] }
%struct.cache_bin_s = type { ptr, %struct.cache_bin_stats_s, i16, i16, i16 }
%struct.cache_bin_stats_s = type { i64 }
%struct.witness_tsd_s = type { %struct.witness_list_t, i8 }
%struct.witness_list_t = type { ptr }

; Function Attrs: nounwind uwtable
define internal void @tcache_enabled_set(ptr noundef %tsd, i1 noundef zeroext %enabled) #0 {
entry:
  %tsd.addr.i2.i = alloca ptr, align 8
  %tsd.addr.i.i.i = alloca ptr, align 8
  %tsd.addr.i.i12 = alloca ptr, align 8
  %state.i.i13 = alloca i8, align 1
  %tsd.addr.i14 = alloca ptr, align 8
  %val.addr.i = alloca i8, align 1
  %tsd.addr.i11 = alloca ptr, align 8
  %tsd.addr.i.i = alloca ptr, align 8
  %tsd.addr.i10 = alloca ptr, align 8
  %state.i = alloca i8, align 1
  %tsd.addr.i = alloca ptr, align 8
  %tsd.addr = alloca ptr, align 8
  %enabled.addr = alloca i8, align 1
  %was_enabled = alloca i8, align 1
  store ptr %tsd, ptr %tsd.addr, align 8
  %frombool = zext i1 %enabled to i8
  store i8 %frombool, ptr %enabled.addr, align 1
  %0 = load ptr, ptr %tsd.addr, align 8
  store ptr %0, ptr %tsd.addr.i, align 8
  %1 = load ptr, ptr %tsd.addr.i, align 8
  store ptr %1, ptr %tsd.addr.i10, align 8
  %2 = load ptr, ptr %tsd.addr.i10, align 8
  store ptr %2, ptr %tsd.addr.i.i, align 8
  %3 = load ptr, ptr %tsd.addr.i.i, align 8
  %state.i.i = getelementptr inbounds %struct.tsd_s, ptr %3, i32 0, i32 29
  %4 = load i8, ptr %state.i.i, align 8
  store i8 %4, ptr %state.i, align 1
  %5 = load ptr, ptr %tsd.addr.i10, align 8
  store ptr %5, ptr %tsd.addr.i11, align 8
  %6 = load ptr, ptr %tsd.addr.i11, align 8
  %7 = load i8, ptr %6, align 1
  %tobool.i = trunc i8 %7 to i1
  %frombool1 = zext i1 %tobool.i to i8
  store i8 %frombool1, ptr %was_enabled, align 1
  %8 = load i8, ptr %was_enabled, align 1
  %tobool = trunc i8 %8 to i1
  br i1 %tobool, label %if.else, label %land.lhs.true

land.lhs.true:                                    ; preds = %entry
  %9 = load i8, ptr %enabled.addr, align 1
  %tobool2 = trunc i8 %9 to i1
  br i1 %tobool2, label %if.then, label %if.else

if.then:                                          ; preds = %land.lhs.true
  %10 = load ptr, ptr %tsd.addr, align 8
  %call3 = call zeroext i1 @tsd_tcache_data_init(ptr noundef %10)
  br label %if.end8

if.else:                                          ; preds = %land.lhs.true, %entry
  %11 = load i8, ptr %was_enabled, align 1
  %tobool4 = trunc i8 %11 to i1
  br i1 %tobool4, label %land.lhs.true5, label %if.end

land.lhs.true5:                                   ; preds = %if.else
  %12 = load i8, ptr %enabled.addr, align 1
  %tobool6 = trunc i8 %12 to i1
  br i1 %tobool6, label %if.end, label %if.then7

if.then7:                                         ; preds = %land.lhs.true5
  %13 = load ptr, ptr %tsd.addr, align 8
  call void @tcache_cleanup(ptr noundef %13)
  br label %if.end

if.end:                                           ; preds = %if.then7, %land.lhs.true5, %if.else
  br label %if.end8

if.end8:                                          ; preds = %if.end, %if.then
  %14 = load ptr, ptr %tsd.addr, align 8
  %15 = load i8, ptr %enabled.addr, align 1
  %tobool9 = trunc i8 %15 to i1
  store ptr %14, ptr %tsd.addr.i14, align 8
  %frombool.i = zext i1 %tobool9 to i8
  store i8 %frombool.i, ptr %val.addr.i, align 1
  %16 = load i8, ptr %val.addr.i, align 1
  %tobool.i15 = trunc i8 %16 to i1
  %17 = load ptr, ptr %tsd.addr.i14, align 8
  store ptr %17, ptr %tsd.addr.i.i12, align 8
  %18 = load ptr, ptr %tsd.addr.i.i12, align 8
  store ptr %18, ptr %tsd.addr.i.i.i, align 8
  %19 = load ptr, ptr %tsd.addr.i.i.i, align 8
  %state.i.i.i = getelementptr inbounds %struct.tsd_s, ptr %19, i32 0, i32 29
  %20 = load i8, ptr %state.i.i.i, align 8
  store i8 %20, ptr %state.i.i13, align 1
  %21 = load ptr, ptr %tsd.addr.i.i12, align 8
  store ptr %21, ptr %tsd.addr.i2.i, align 8
  %22 = load ptr, ptr %tsd.addr.i2.i, align 8
  %frombool1.i = zext i1 %tobool.i15 to i8
  store i8 %frombool1.i, ptr %22, align 1
  %23 = load ptr, ptr %tsd.addr, align 8
  call void @tsd_slow_update(ptr noundef %23)
  ret void
}

; Function Attrs: nounwind uwtable
define internal zeroext i1 @tcache_enabled_get(ptr noundef %tsd) #0 {
entry:
  %tsd.addr.i2 = alloca ptr, align 8
  %tsd.addr.i.i = alloca ptr, align 8
  %tsd.addr.i1 = alloca ptr, align 8
  %state.i = alloca i8, align 1
  %tsd.addr.i = alloca ptr, align 8
  %tsd.addr = alloca ptr, align 8
  store ptr %tsd, ptr %tsd.addr, align 8
  %0 = load ptr, ptr %tsd.addr, align 8
  store ptr %0, ptr %tsd.addr.i, align 8
  %1 = load ptr, ptr %tsd.addr.i, align 8
  store ptr %1, ptr %tsd.addr.i1, align 8
  %2 = load ptr, ptr %tsd.addr.i1, align 8
  store ptr %2, ptr %tsd.addr.i.i, align 8
  %3 = load ptr, ptr %tsd.addr.i.i, align 8
  %state.i.i = getelementptr inbounds %struct.tsd_s, ptr %3, i32 0, i32 29
  %4 = load i8, ptr %state.i.i, align 8
  store i8 %4, ptr %state.i, align 1
  %5 = load ptr, ptr %tsd.addr.i1, align 8
  store ptr %5, ptr %tsd.addr.i2, align 8
  %6 = load ptr, ptr %tsd.addr.i2, align 8
  %7 = load i8, ptr %6, align 1
  %tobool.i = trunc i8 %7 to i1
  ret i1 %tobool.i
}

; Function Attrs: nounwind uwtable
define internal i32 @thread_tcache_enabled_ctl(ptr noundef %tsd, ptr noundef %mib, i64 noundef %miblen, ptr noundef %oldp, ptr noundef %oldlenp, ptr noundef %newp, i64 noundef %newlen) #0 {
entry:
  %tsd.addr = alloca ptr, align 8
  %mib.addr = alloca ptr, align 8
  %miblen.addr = alloca i64, align 8
  %oldp.addr = alloca ptr, align 8
  %oldlenp.addr = alloca ptr, align 8
  %newp.addr = alloca ptr, align 8
  %newlen.addr = alloca i64, align 8
  %ret = alloca i32, align 4
  %oldval = alloca i8, align 1
  %copylen = alloca i64, align 8
  store ptr %tsd, ptr %tsd.addr, align 8
  store ptr %mib, ptr %mib.addr, align 8
  store i64 %miblen, ptr %miblen.addr, align 8
  store ptr %oldp, ptr %oldp.addr, align 8
  store ptr %oldlenp, ptr %oldlenp.addr, align 8
  store ptr %newp, ptr %newp.addr, align 8
  store i64 %newlen, ptr %newlen.addr, align 8
  %0 = load ptr, ptr %tsd.addr, align 8
  %call = call zeroext i1 @tcache_enabled_get(ptr noundef %0)
  %frombool = zext i1 %call to i8
  store i8 %frombool, ptr %oldval, align 1
  %1 = load ptr, ptr %newp.addr, align 8
  %cmp = icmp ne ptr %1, null
  br i1 %cmp, label %if.then, label %if.end3

if.then:                                          ; preds = %entry
  %2 = load i64, ptr %newlen.addr, align 8
  %cmp1 = icmp ne i64 %2, 1
  br i1 %cmp1, label %if.then2, label %if.end

if.then2:                                         ; preds = %if.then
  store i32 22, ptr %ret, align 4
  br label %label_return

if.end:                                           ; preds = %if.then
  %3 = load ptr, ptr %tsd.addr, align 8
  %4 = load ptr, ptr %newp.addr, align 8
  %5 = load i8, ptr %4, align 1
  %tobool = trunc i8 %5 to i1
  call void @tcache_enabled_set(ptr noundef %3, i1 noundef zeroext %tobool)
  br label %if.end3

if.end3:                                          ; preds = %if.end, %entry
  br label %do.body

do.body:                                          ; preds = %if.end3
  %6 = load ptr, ptr %oldp.addr, align 8
  %cmp4 = icmp ne ptr %6, null
  br i1 %cmp4, label %land.lhs.true, label %if.end13

land.lhs.true:                                    ; preds = %do.body
  %7 = load ptr, ptr %oldlenp.addr, align 8
  %cmp5 = icmp ne ptr %7, null
  br i1 %cmp5, label %if.then6, label %if.end13

if.then6:                                         ; preds = %land.lhs.true
  %8 = load ptr, ptr %oldlenp.addr, align 8
  %9 = load i64, ptr %8, align 8
  %cmp7 = icmp ne i64 %9, 1
  br i1 %cmp7, label %if.then8, label %if.end10

if.then8:                                         ; preds = %if.then6
  %10 = load ptr, ptr %oldlenp.addr, align 8
  %11 = load i64, ptr %10, align 8
  %cmp9 = icmp ule i64 1, %11
  br i1 %cmp9, label %cond.true, label %cond.false

cond.true:                                        ; preds = %if.then8
  br label %cond.end

cond.false:                                       ; preds = %if.then8
  %12 = load ptr, ptr %oldlenp.addr, align 8
  %13 = load i64, ptr %12, align 8
  br label %cond.end

cond.end:                                         ; preds = %cond.false, %cond.true
  %cond = phi i64 [ 1, %cond.true ], [ %13, %cond.false ]
  store i64 %cond, ptr %copylen, align 8
  %14 = load ptr, ptr %oldp.addr, align 8
  %15 = load i64, ptr %copylen, align 8
  call void @llvm.memcpy.p0.p0.i64(ptr align 1 %14, ptr align 1 %oldval, i64 %15, i1 false)
  %16 = load i64, ptr %copylen, align 8
  %17 = load ptr, ptr %oldlenp.addr, align 8
  store i64 %16, ptr %17, align 8
  store i32 22, ptr %ret, align 4
  br label %label_return

if.end10:                                         ; preds = %if.then6
  %18 = load i8, ptr %oldval, align 1
  %tobool11 = trunc i8 %18 to i1
  %19 = load ptr, ptr %oldp.addr, align 8
  %frombool12 = zext i1 %tobool11 to i8
  store i8 %frombool12, ptr %19, align 1
  br label %if.end13

if.end13:                                         ; preds = %if.end10, %land.lhs.true, %do.body
  br label %do.end

do.end:                                           ; preds = %if.end13
  store i32 0, ptr %ret, align 4
  br label %label_return

label_return:                                     ; preds = %do.end, %cond.end, %if.then2
  %20 = load i32, ptr %ret, align 4
  ret i32 %20
}