; Function Attrs: nounwind uwtable
define internal noundef i32 @thread_tcache_enabled_ctl(ptr noundef %tsd, ptr nocapture readnone %mib, i64 %miblen, ptr noundef writeonly %oldp, ptr noundef %oldlenp, ptr noundef readonly %newp, i64 noundef %newlen) #0 {
entry:
  %oldval = alloca i8, align 1
  %tsd.val = load i8, ptr %tsd, align 1
  %0 = and i8 %tsd.val, 1
  store i8 %0, ptr %oldval, align 1
  %cmp.not = icmp eq ptr %newp, null
  br i1 %cmp.not, label %do.body, label %if.then

if.then:                                          ; preds = %entry
  %cmp1.not = icmp eq i64 %newlen, 1
  br i1 %cmp1.not, label %if.end, label %label_return

if.end:                                           ; preds = %if.then
  %1 = load i8, ptr %newp, align 1
  %2 = and i8 %1, 1
  %tobool = icmp ne i8 %2, 0
  %tobool.i.not.i = icmp eq i8 %0, 0
  %brmerge.demorgan.i = and i1 %tobool.i.not.i, %tobool
  br i1 %brmerge.demorgan.i, label %if.then.i, label %if.else.i

if.then.i:                                        ; preds = %if.end
  %call3.i = tail call zeroext i1 @tsd_tcache_data_init(ptr noundef nonnull %tsd) #14
  br label %tcache_enabled_set.exit

if.else.i:                                        ; preds = %if.end
  %brmerge10.i = or i1 %tobool.i.not.i, %tobool
  br i1 %brmerge10.i, label %tcache_enabled_set.exit, label %if.then7.i

if.then7.i:                                       ; preds = %if.else.i
  tail call void @tcache_cleanup(ptr noundef nonnull %tsd) #14
  br label %tcache_enabled_set.exit

tcache_enabled_set.exit:                          ; preds = %if.then.i, %if.else.i, %if.then7.i
  store i8 %2, ptr %tsd, align 1
  tail call void @tsd_slow_update(ptr noundef nonnull %tsd) #14
  br label %do.body

do.body:                                          ; preds = %entry, %tcache_enabled_set.exit
  %cmp4 = icmp ne ptr %oldp, null
  %cmp5 = icmp ne ptr %oldlenp, null
  %or.cond = and i1 %cmp4, %cmp5
  br i1 %or.cond, label %if.then6, label %label_return

if.then6:                                         ; preds = %do.body
  %3 = load i64, ptr %oldlenp, align 8
  switch i64 %3, label %cond.end [
    i64 1, label %if.end10
    i64 0, label %cond.false
  ]

cond.false:                                       ; preds = %if.then6
  br label %cond.end

cond.end:                                         ; preds = %if.then6, %cond.false
  %cond = phi i64 [ 0, %cond.false ], [ 1, %if.then6 ]
  call void @llvm.memcpy.p0.p0.i64(ptr nonnull align 1 %oldp, ptr nonnull align 1 %oldval, i64 %cond, i1 false)
  store i64 %cond, ptr %oldlenp, align 8
  br label %label_return

if.end10:                                         ; preds = %if.then6
  store i8 %0, ptr %oldp, align 1
  br label %label_return

label_return:                                     ; preds = %if.end10, %do.body, %if.then, %cond.end
  %ret.0 = phi i32 [ 22, %cond.end ], [ 22, %if.then ], [ 0, %do.body ], [ 0, %if.end10 ]
  ret i32 %ret.0
}